target datalayout = "e-m:e-p270:32:32-p271:32:32-p272:64:64-i64:64-i128:128-f80:128-n8:16:32:64-S128"
target triple = "x86_64-pc-linux-gnu"

%"class.base::StatisticsRecorder::StringKey" = type { %"class.base::BasicStringPiece" }
%"class.base::BasicStringPiece" = type { ptr, i64 }
%"class.std::map" = type { %"class.std::_Rb_tree" }
%"class.std::_Rb_tree" = type { %"struct.std::_Rb_tree<base::StatisticsRecorder::StringKey, std::pair<const base::StatisticsRecorder::StringKey, base::HistogramBase *>, std::_Select1st<std::pair<const base::StatisticsRecorder::StringKey, base::HistogramBase *>>, std::less<base::StatisticsRecorder::StringKey>>::_Rb_tree_impl" }
%"struct.std::_Rb_tree<base::StatisticsRecorder::StringKey, std::pair<const base::StatisticsRecorder::StringKey, base::HistogramBase *>, std::_Select1st<std::pair<const base::StatisticsRecorder::StringKey, base::HistogramBase *>>, std::less<base::StatisticsRecorder::StringKey>>::_Rb_tree_impl" = type { [8 x i8], %"struct.std::_Rb_tree_header" }
%"struct.std::_Rb_tree_header" = type { %"struct.std::_Rb_tree_node_base", i64 }
%"struct.std::_Rb_tree_node_base" = type { i32, ptr, ptr, ptr }

@_ZN4base18StatisticsRecorder11histograms_E = global ptr null, align 8

; Function Attrs: mustprogress uwtable
define linkonce_odr noundef i64 @_ZNSt3mapIN4base18StatisticsRecorder9StringKeyEPNS0_13HistogramBaseESt4lessIS2_ESaISt4pairIKS2_S4_EEE5eraseERS8_(ptr noundef nonnull align 8 dereferenceable(48) %0, ptr noundef nonnull align 8 dereferenceable(16) %1) #0 comdat align 2 {
  %3 = alloca ptr, align 8
  %4 = alloca ptr, align 8
  store ptr %0, ptr %3, align 8, !tbaa !20
  store ptr %1, ptr %4, align 8, !tbaa !63
  %5 = load ptr, ptr %3, align 8
  %6 = getelementptr inbounds nuw %"class.std::map", ptr %5, i32 0, i32 0
  %7 = load ptr, ptr %4, align 8, !tbaa !63
  %8 = call noundef i64 @_ZNSt8_Rb_treeIN4base18StatisticsRecorder9StringKeyESt4pairIKS2_PNS0_13HistogramBaseEESt10_Select1stIS7_ESt4lessIS2_ESaIS7_EE5eraseERS4_(ptr noundef nonnull align 8 dereferenceable(48) %6, ptr noundef nonnull align 8 dereferenceable(16) %7)
  ret i64 %8
}

; Function Attrs: mustprogress nounwind uwtable
define linkonce_odr void @_ZN4base18StatisticsRecorder9StringKeyC2ENS_16BasicStringPieceINSt7__cxx1112basic_stringIcSt11char_traitsIcESaIcEEEEE(ptr noundef nonnull align 8 dereferenceable(16) %0, ptr %1, i64 %2) unnamed_addr #2 comdat align 2 {
  %4 = alloca %"class.base::BasicStringPiece", align 8
  %5 = alloca ptr, align 8
  %6 = getelementptr inbounds nuw { ptr, i64 }, ptr %4, i32 0, i32 0
  store ptr %1, ptr %6, align 8
  %7 = getelementptr inbounds nuw { ptr, i64 }, ptr %4, i32 0, i32 1
  store i64 %2, ptr %7, align 8
  store ptr %0, ptr %5, align 8, !tbaa !63
  %8 = load ptr, ptr %5, align 8
  call void @llvm.memcpy.p0.p0.i64(ptr align 8 %8, ptr align 8 %4, i64 16, i1 false), !tbaa.struct !146
  ret void
}

; Function Attrs: mustprogress uwtable
define void @_ZN4base18StatisticsRecorder25ForgetHistogramForTestingENS_16BasicStringPieceINSt7__cxx1112basic_stringIcSt11char_traitsIcESaIcEEEEE(ptr %0, i64 %1) #0 align 2 {
  %3 = alloca %"class.base::BasicStringPiece", align 8
  %4 = alloca %"class.base::StatisticsRecorder::StringKey", align 8
  %5 = alloca %"class.base::BasicStringPiece", align 8
  %6 = getelementptr inbounds nuw { ptr, i64 }, ptr %3, i32 0, i32 0
  store ptr %0, ptr %6, align 8
  %7 = getelementptr inbounds nuw { ptr, i64 }, ptr %3, i32 0, i32 1
  store i64 %1, ptr %7, align 8
  %8 = load ptr, ptr @_ZN4base18StatisticsRecorder11histograms_E, align 8, !tbaa !20
  %9 = icmp ne ptr %8, null
  br i1 %9, label %10, label %17

10:                                               ; preds = %2
  %11 = load ptr, ptr @_ZN4base18StatisticsRecorder11histograms_E, align 8, !tbaa !20
  call void @llvm.lifetime.start.p0(i64 16, ptr %4) #17
  call void @llvm.memcpy.p0.p0.i64(ptr align 8 %5, ptr align 8 %3, i64 16, i1 false), !tbaa.struct !146
  %12 = getelementptr inbounds nuw { ptr, i64 }, ptr %5, i32 0, i32 0
  %13 = load ptr, ptr %12, align 8
  %14 = getelementptr inbounds nuw { ptr, i64 }, ptr %5, i32 0, i32 1
  %15 = load i64, ptr %14, align 8
  call void @_ZN4base18StatisticsRecorder9StringKeyC2ENS_16BasicStringPieceINSt7__cxx1112basic_stringIcSt11char_traitsIcESaIcEEEEE(ptr noundef nonnull align 8 dereferenceable(16) %4, ptr %13, i64 %15)
  %16 = call noundef i64 @_ZNSt3mapIN4base18StatisticsRecorder9StringKeyEPNS0_13HistogramBaseESt4lessIS2_ESaISt4pairIKS2_S4_EEE5eraseERS8_(ptr noundef nonnull align 8 dereferenceable(48) %11, ptr noundef nonnull align 8 dereferenceable(16) %4)
  call void @llvm.lifetime.end.p0(i64 16, ptr %4) #17
  br label %17

17:                                               ; preds = %10, %2
  ret void
}