; Function Attrs: mustprogress uwtable
define void @_ZN4base18StatisticsRecorder25ForgetHistogramForTestingENS_16BasicStringPieceINSt7__cxx1112basic_stringIcSt11char_traitsIcESaIcEEEEE(ptr %0, i64 %1) local_unnamed_addr #0 align 2 {
  %3 = alloca %"class.base::StatisticsRecorder::StringKey", align 8
  %4 = load ptr, ptr @_ZN4base18StatisticsRecorder11histograms_E, align 8, !tbaa !12
  %.not = icmp eq ptr %4, null
  br i1 %.not, label %7, label %5

5:                                                ; preds = %2
  call void @llvm.lifetime.start.p0(i64 16, ptr nonnull %3) #25
  store ptr %0, ptr %3, align 8, !tbaa !126
  %.sroa.2.0..0..sroa_idx.i = getelementptr inbounds nuw i8, ptr %3, i64 8
  store i64 %1, ptr %.sroa.2.0..0..sroa_idx.i, align 8, !tbaa !125
  %6 = call noundef i64 @_ZNSt8_Rb_treeIN4base18StatisticsRecorder9StringKeyESt4pairIKS2_PNS0_13HistogramBaseEESt10_Select1stIS7_ESt4lessIS2_ESaIS7_EE5eraseERS4_(ptr noundef nonnull align 8 dereferenceable(48) %4, ptr noundef nonnull align 8 dereferenceable(16) %3)
  call void @llvm.lifetime.end.p0(i64 16, ptr nonnull %3) #25
  br label %7

7:                                                ; preds = %5, %2
  ret void
}